target datalayout = "e-m:e-p270:32:32-p271:32:32-p272:64:64-i64:64-i128:128-f80:128-n8:16:32:64-S128"
target triple = "x86_64-pc-linux-gnu"

%struct.pointf_s = type { double, double }
%struct.GVJ_s = type { ptr, ptr, ptr, ptr, ptr, ptr, i32, ptr, ptr, ptr, ptr, i64, i64, ptr, i32, %struct.gvplugin_active_render_s, %struct.gvplugin_active_device_s, %struct.gvplugin_active_loadimage_t, ptr, %struct.pointf_s, i8, ptr, i32, ptr, i8, ptr, i32, i32, i32, %struct.point, %struct.point, %struct.point, %struct.point, %struct.point, i32, %struct.boxf, %struct.pointf_s, %struct.boxf, %struct.boxf, %struct.pointf_s, %struct.pointf_s, double, i32, %struct.pointf_s, %struct.boxf, %struct.pointf_s, %struct.pointf_s, i32, i32, %struct.box, %struct.box, %struct.pointf_s, %struct.pointf_s, %struct.pointf_s, i8, i8, i8, i8, i8, i8, %struct.pointf_s, %struct.pointf_s, ptr, ptr, ptr, ptr, ptr, ptr, i64, ptr }
%struct.gvplugin_active_render_s = type { ptr, i32, ptr, ptr }
%struct.gvplugin_active_device_s = type { ptr, i32, ptr, ptr }
%struct.gvplugin_active_loadimage_t = type { ptr, i32, ptr }
%struct.point = type { i32, i32 }
%struct.boxf = type { %struct.pointf_s, %struct.pointf_s }
%struct.box = type { %struct.point, %struct.point }
%struct.obj_state_s = type { ptr, i32, %union.anon, i32, %struct.color_s, %struct.color_s, %struct.color_s, i32, double, i32, i32, double, ptr, double, double, double, ptr, ptr, ptr, ptr, ptr, ptr, ptr, ptr, ptr, ptr, ptr, ptr, ptr, ptr, ptr, ptr, ptr, i16, i32, i64, ptr, i64, ptr, ptr, i32, ptr, i32, ptr }
%union.anon = type { ptr }
%struct.color_s = type { %union.anon.0, i32 }
%union.anon.0 = type { [4 x double] }

@.str.11 = private unnamed_addr constant [22 x i8] c"//*** begin_graph %s\0A\00", align 1
@.str.12 = private unnamed_addr constant [152 x i8] c"camera { location <%.3f , %.3f , -500.000>\0A         look_at  <%.3f , %.3f , 0.000>\0A         right x * image_width / image_height\0A         angle %.3f\0A}\0A\00", align 1
@.str.14 = private unnamed_addr constant [48 x i8] c"light_source { <1500,3000,-2500> color White }\0A\00", align 1

; Function Attrs: nounwind uwtable
define internal void @pov_begin_graph(ptr noundef %0) #0 {
  %2 = alloca ptr, align 8
  %3 = alloca double, align 8
  %4 = alloca double, align 8
  %5 = alloca double, align 8
  %6 = alloca double, align 8
  %7 = alloca double, align 8
  store ptr %0, ptr %2, align 8, !tbaa !3
  %8 = load ptr, ptr %2, align 8, !tbaa !3
  %9 = load ptr, ptr %2, align 8, !tbaa !3
  %10 = getelementptr inbounds nuw %struct.GVJ_s, ptr %9, i32 0, i32 4
  %11 = load ptr, ptr %10, align 8, !tbaa !8
  %12 = getelementptr inbounds nuw %struct.obj_state_s, ptr %11, i32 0, i32 2
  %13 = load ptr, ptr %12, align 8, !tbaa !31
  %14 = call ptr @agnameof(ptr noundef %13)
  call void (ptr, ptr, ...) @gvprintf(ptr noundef %8, ptr noundef @.str.11, ptr noundef %14)
  call void @llvm.lifetime.start.p0(i64 8, ptr %3) #14
  %15 = load ptr, ptr %2, align 8, !tbaa !3
  %16 = getelementptr inbounds nuw %struct.GVJ_s, ptr %15, i32 0, i32 43
  %17 = getelementptr inbounds nuw %struct.pointf_s, ptr %16, i32 0, i32 0
  %18 = load double, ptr %17, align 8, !tbaa !32
  %19 = fdiv double %18, 2.000000e+00
  %20 = load ptr, ptr %2, align 8, !tbaa !3
  %21 = getelementptr inbounds nuw %struct.GVJ_s, ptr %20, i32 0, i32 51
  %22 = getelementptr inbounds nuw %struct.pointf_s, ptr %21, i32 0, i32 0
  %23 = load double, ptr %22, align 8, !tbaa !33
  %24 = fmul double %19, %23
  store double %24, ptr %3, align 8, !tbaa !34
  call void @llvm.lifetime.start.p0(i64 8, ptr %4) #14
  %25 = load ptr, ptr %2, align 8, !tbaa !3
  %26 = getelementptr inbounds nuw %struct.GVJ_s, ptr %25, i32 0, i32 43
  %27 = getelementptr inbounds nuw %struct.pointf_s, ptr %26, i32 0, i32 1
  %28 = load double, ptr %27, align 8, !tbaa !35
  %29 = fdiv double %28, 2.000000e+00
  %30 = load ptr, ptr %2, align 8, !tbaa !3
  %31 = getelementptr inbounds nuw %struct.GVJ_s, ptr %30, i32 0, i32 51
  %32 = getelementptr inbounds nuw %struct.pointf_s, ptr %31, i32 0, i32 1
  %33 = load double, ptr %32, align 8, !tbaa !36
  %34 = fmul double %29, %33
  store double %34, ptr %4, align 8, !tbaa !34
  call void @llvm.lifetime.start.p0(i64 8, ptr %5) #14
  store double 5.000000e+02, ptr %5, align 8, !tbaa !34
  call void @llvm.lifetime.start.p0(i64 8, ptr %6) #14
  %35 = load double, ptr %3, align 8, !tbaa !34
  %36 = load double, ptr %5, align 8, !tbaa !34
  %37 = fdiv double %35, %36
  %38 = call double @atan(double noundef %37) #14, !tbaa !37
  %39 = fmul double %38, 1.800000e+02
  %40 = fdiv double %39, 0x400921FB54442D18
  %41 = fmul double %40, 2.000000e+00
  store double %41, ptr %6, align 8, !tbaa !34
  call void @llvm.lifetime.start.p0(i64 8, ptr %7) #14
  %42 = load double, ptr %4, align 8, !tbaa !34
  %43 = load double, ptr %5, align 8, !tbaa !34
  %44 = fdiv double %42, %43
  %45 = call double @atan(double noundef %44) #14, !tbaa !37
  %46 = fmul double %45, 1.800000e+02
  %47 = fdiv double %46, 0x400921FB54442D18
  %48 = fmul double %47, 2.000000e+00
  store double %48, ptr %7, align 8, !tbaa !34
  %49 = load ptr, ptr %2, align 8, !tbaa !3
  %50 = load double, ptr %3, align 8, !tbaa !34
  %51 = load double, ptr %4, align 8, !tbaa !34
  %52 = load double, ptr %3, align 8, !tbaa !34
  %53 = load double, ptr %4, align 8, !tbaa !34
  %54 = load double, ptr %6, align 8, !tbaa !34
  %55 = load double, ptr %7, align 8, !tbaa !34
  %56 = call double @llvm.maxnum.f64(double %54, double %55)
  %57 = fmul double %56, 1.200000e+00
  call void (ptr, ptr, ...) @gvprintf(ptr noundef %49, ptr noundef @.str.12, double noundef %50, double noundef %51, double noundef %52, double noundef %53, double noundef %57)
  %58 = load ptr, ptr %2, align 8, !tbaa !3
  %59 = call i32 @gvputs(ptr noundef %58, ptr noundef @.str.13)
  %60 = load ptr, ptr %2, align 8, !tbaa !3
  %61 = call i32 @gvputs(ptr noundef %60, ptr noundef @.str.14)
  call void @llvm.lifetime.end.p0(i64 8, ptr %7) #14
  call void @llvm.lifetime.end.p0(i64 8, ptr %6) #14
  call void @llvm.lifetime.end.p0(i64 8, ptr %5) #14
  call void @llvm.lifetime.end.p0(i64 8, ptr %4) #14
  call void @llvm.lifetime.end.p0(i64 8, ptr %3) #14
  ret void
}