; Function Attrs: nounwind uwtable
define internal void @pov_begin_graph(ptr noundef %0) #0 {
  %2 = getelementptr inbounds nuw i8, ptr %0, i64 32
  %3 = load ptr, ptr %2, align 8, !tbaa !3
  %4 = getelementptr inbounds nuw i8, ptr %3, i64 16
  %5 = load ptr, ptr %4, align 8, !tbaa !30
  %6 = tail call ptr @agnameof(ptr noundef %5) #18
  tail call void (ptr, ptr, ...) @gvprintf(ptr noundef %0, ptr noundef nonnull @.str.11, ptr noundef %6) #18
  %7 = getelementptr inbounds nuw i8, ptr %0, i64 496
  %8 = load double, ptr %7, align 8, !tbaa !31
  %9 = fmul double %8, 5.000000e-01
  %10 = getelementptr inbounds nuw i8, ptr %0, i64 616
  %11 = load double, ptr %10, align 8, !tbaa !32
  %12 = fmul double %9, %11
  %13 = getelementptr inbounds nuw i8, ptr %0, i64 504
  %14 = load double, ptr %13, align 8, !tbaa !33
  %15 = fmul double %14, 5.000000e-01
  %16 = getelementptr inbounds nuw i8, ptr %0, i64 624
  %17 = load double, ptr %16, align 8, !tbaa !34
  %18 = fmul double %15, %17
  %19 = fdiv double %12, 5.000000e+02
  %20 = tail call double @atan(double noundef %19) #18, !tbaa !35
  %21 = fmul double %20, 1.800000e+02
  %22 = fdiv double %21, 0x400921FB54442D18
  %23 = fmul double %22, 2.000000e+00
  %24 = fdiv double %18, 5.000000e+02
  %25 = tail call double @atan(double noundef %24) #18, !tbaa !35
  %26 = fmul double %25, 1.800000e+02
  %27 = fdiv double %26, 0x400921FB54442D18
  %28 = fmul double %27, 2.000000e+00
  %29 = tail call double @llvm.maxnum.f64(double %23, double %28)
  %30 = fmul double %29, 1.200000e+00
  tail call void (ptr, ptr, ...) @gvprintf(ptr noundef %0, ptr noundef nonnull @.str.12, double noundef %12, double noundef %18, double noundef %12, double noundef %18, double noundef %30) #18
  %31 = tail call i32 @gvputs(ptr noundef %0, ptr noundef nonnull @.str.13) #18
  %32 = tail call i32 @gvputs(ptr noundef %0, ptr noundef nonnull @.str.14) #18
  ret void
}